target datalayout = "e-m:e-p270:32:32-p271:32:32-p272:64:64-i64:64-i128:128-f80:128-n8:16:32:64-S128"
target triple = "x86_64-pc-linux-gnu"

@plugin_name = dso_local constant [35 x i8] c"AcctGatherFilesystem LUSTRE plugin\00", align 16
@plugin_type = dso_local constant [30 x i8] c"acct_gather_filesystem/lustre\00", align 16
@.str.3 = private unnamed_addr constant [18 x i8] c"%s: %s: %s loaded\00", align 1
@__func__.acct_gather_filesystem_p_conf_set = private unnamed_addr constant [34 x i8] c"acct_gather_filesystem_p_conf_set\00", align 1

; Function Attrs: nounwind uwtable
define dso_local void @acct_gather_filesystem_p_conf_set(ptr noundef %0) #0 {
  %2 = alloca ptr, align 8
  store ptr %0, ptr %2, align 8
  %3 = call zeroext i1 @slurm_running_in_slurmstepd()
  br i1 %3, label %5, label %4

4:                                                ; preds = %1
  br label %13

5:                                                ; preds = %1
  br label %6

6:                                                ; preds = %5
  br label %7

7:                                                ; preds = %6
  %8 = call i32 @slurm_get_log_level()
  %9 = icmp sge i32 %8, 5
  br i1 %9, label %10, label %11

10:                                               ; preds = %7
  call void (i32, ptr, ...) @slurm_log_var(i32 noundef 5, ptr noundef @.str.3, ptr noundef @plugin_type, ptr noundef @__func__.acct_gather_filesystem_p_conf_set, ptr noundef @plugin_name)
  br label %11

11:                                               ; preds = %10, %7
  br label %12

12:                                               ; preds = %11
  br label %13

13:                                               ; preds = %4, %12
  ret void
}