; Function Attrs: nounwind uwtable
define dso_local void @acct_gather_filesystem_p_conf_set(ptr noundef readnone captures(none) %0) local_unnamed_addr #0 {
  %2 = tail call zeroext i1 @slurm_running_in_slurmstepd() #11
  br i1 %2, label %3, label %7

3:                                                ; preds = %1
  %4 = tail call i32 @slurm_get_log_level() #11
  %5 = icmp sgt i32 %4, 4
  br i1 %5, label %6, label %7

6:                                                ; preds = %3
  tail call void (i32, ptr, ...) @slurm_log_var(i32 noundef 5, ptr noundef nonnull @.str.3, ptr noundef nonnull @plugin_type, ptr noundef nonnull @__func__.acct_gather_filesystem_p_conf_set, ptr noundef nonnull @plugin_name) #11
  br label %7

7:                                                ; preds = %6, %3, %1
  ret void
}